target datalayout = "e-m:e-p270:32:32-p271:32:32-p272:64:64-i64:64-i128:128-f80:128-n8:16:32:64-S128"
target triple = "x86_64-pc-linux-gnu"

%struct.Curl_cftype = type { ptr, i32, i32, ptr, ptr, ptr, ptr, ptr, ptr, ptr, ptr, ptr, ptr, ptr, ptr, ptr }
%struct.Curl_cfilter = type { ptr, ptr, ptr, ptr, i32, i8 }
%struct.Curl_easy = type { i32, i64, i64, ptr, %struct.Curl_llist_node, %struct.Curl_llist_node, i32, i32, %struct.Curl_message, %struct.easy_pollset, %struct.Names, ptr, ptr, ptr, ptr, %struct.SingleRequest, %struct.UserDefined, ptr, ptr, ptr, %struct.Progress, %struct.UrlState, ptr, %struct.PureInfo, %struct.curl_tlssessioninfo }
%struct.Curl_llist_node = type { ptr, ptr, ptr, ptr }
%struct.Curl_message = type { %struct.Curl_llist_node, %struct.CURLMsg }
%struct.CURLMsg = type { i32, ptr, %union.anon.0 }
%union.anon.0 = type { ptr }
%struct.easy_pollset = type { [5 x i32], i32, [5 x i8] }
%struct.Names = type { ptr, i32 }
%struct.SingleRequest = type <{ i64, i64, i64, i64, %struct.curltime, i32, i32, i32, i32, i64, i32, i32, i8, i8, [2 x i8], i32, ptr, ptr, %struct.bufq, i64, i64, ptr, ptr, %union.anon.1, ptr, i8, i32, [3 x i8] }>
%struct.curltime = type { i64, i32 }
%struct.bufq = type { ptr, ptr, ptr, ptr, i64, i64, i64, i32 }
%union.anon.1 = type { ptr }
%struct.UserDefined = type <{ ptr, ptr, ptr, ptr, ptr, ptr, i64, i64, i64, ptr, ptr, i64, ptr, ptr, ptr, ptr, ptr, ptr, ptr, ptr, ptr, ptr, ptr, ptr, ptr, ptr, ptr, ptr, ptr, ptr, ptr, ptr, ptr, ptr, ptr, i64, i64, i64, i64, i64, i64, i64, i64, i64, ptr, ptr, %struct.curl_mimepart, ptr, ptr, ptr, i64, %struct.ssl_config_data, %struct.ssl_config_data, ptr, i16, i8, i8, %struct.ssl_general_config, i32, i32, i32, [4 x i8], ptr, ptr, i64, i32, i8, i8, i8, i8, ptr, ptr, ptr, i32, [4 x i8], [74 x ptr], [8 x ptr], i32, i32, i32, [4 x i8], ptr, i32, [4 x i8], ptr, ptr, ptr, ptr, ptr, i32, i32, i32, i32, i32, i32, i32, i32, i64, ptr, ptr, i64, ptr, i64, ptr, ptr, ptr, ptr, i32, i16, i16, i16, i8, i8, i8, i8, i8, i8, i8, i8, i64, [6 x i8] }>
%struct.curl_mimepart = type { ptr, ptr, i32, i32, ptr, ptr, ptr, ptr, ptr, ptr, ptr, ptr, ptr, ptr, ptr, i64, %struct.mime_state, ptr, %struct.mime_encoder_state, i64 }
%struct.mime_state = type { i32, ptr, i64 }
%struct.mime_encoder_state = type { i64, i64, i64, [256 x i8] }
%struct.ssl_config_data = type { %struct.ssl_primary_config, i64, ptr, ptr, ptr, ptr, ptr, ptr, ptr, i16 }
%struct.ssl_primary_config = type { ptr, ptr, ptr, ptr, ptr, ptr, ptr, ptr, ptr, ptr, ptr, ptr, ptr, ptr, i8, i32, i8, i8 }
%struct.ssl_general_config = type { i32 }
%struct.Progress = type { i64, %struct.pgrs_dir, %struct.pgrs_dir, i64, i64, i32, i32, i64, i64, i64, i64, i64, i64, i64, i64, i64, %struct.curltime, %struct.curltime, %struct.curltime, %struct.curltime, %struct.curltime, [6 x i64], [6 x %struct.curltime], i32, i8 }
%struct.pgrs_dir = type { i64, i64, i64, %struct.pgrs_measure }
%struct.pgrs_measure = type { %struct.curltime, i64 }
%struct.UrlState = type { %struct.curltime, i64, i64, %struct.dynbuf, ptr, i64, ptr, i32, i32, i32, ptr, i32, i64, i32, ptr, %struct.digestdata, %struct.digestdata, %struct.auth, %struct.auth, %struct.Curl_async, ptr, i8, %struct.curltime, %struct.Curl_tree, %struct.Curl_llist, [15 x %struct.time_node], ptr, ptr, i64, i64, i64, i64, [32 x i8], i64, ptr, ptr, ptr, %struct.urlpieces, ptr, ptr, ptr, ptr, ptr, i64, %struct.dynbuf, %struct.Curl_llist, [2 x %struct.curl_header], ptr, i32, ptr, ptr, %struct.store_netrc, %struct.dynamically_allocated_data, i8, i8, i8, i8, i32 }
%struct.digestdata = type { ptr, ptr, ptr, ptr, ptr, ptr, i32, i8, i8 }
%struct.auth = type { i64, i64, i64, i8 }
%struct.Curl_async = type { ptr, ptr, ptr, ptr, i32, i32, i8 }
%struct.Curl_tree = type { ptr, ptr, ptr, ptr, %struct.curltime, ptr }
%struct.time_node = type { %struct.Curl_llist_node, %struct.curltime, i32 }
%struct.urlpieces = type { ptr, ptr, ptr, ptr, ptr, ptr, ptr, ptr }
%struct.dynbuf = type { ptr, i64, i64, i64 }
%struct.Curl_llist = type { ptr, ptr, ptr, i64 }
%struct.curl_header = type { ptr, ptr, i64, i64, i32, ptr }
%struct.store_netrc = type { %struct.dynbuf, ptr, i8 }
%struct.dynamically_allocated_data = type { ptr, ptr, ptr, ptr, ptr, ptr, ptr, ptr, ptr, ptr, ptr, ptr, ptr, ptr }
%struct.PureInfo = type { i32, i32, i32, i64, i64, i64, i64, i64, i64, i64, ptr, ptr, i64, i32, %struct.ip_quadruple, i32, ptr, i32, %struct.curl_certinfo, i32, i8 }
%struct.ip_quadruple = type { [46 x i8], [46 x i8], i32, i32 }
%struct.curl_certinfo = type { i32, ptr }
%struct.curl_tlssessioninfo = type { i32, ptr }
%struct.curl_trc_feat = type { ptr, i32 }
%struct.cf_hc_ctx = type { i32, ptr, %struct.curltime, i32, [2 x %struct.cf_hc_baller], i64, i32, i32 }
%struct.cf_hc_baller = type { ptr, ptr, i32, %struct.curltime, i32, i32, i8 }

@.str.15 = private unnamed_addr constant [13 x i8] c"data_pending\00", align 1

; Function Attrs: nounwind uwtable
define internal zeroext i1 @cf_hc_baller_data_pending(ptr noundef %0, ptr noundef %1) #0 {
  %3 = alloca ptr, align 8
  %4 = alloca ptr, align 8
  store ptr %0, ptr %3, align 8, !tbaa !123
  store ptr %1, ptr %4, align 8, !tbaa !8
  %5 = load ptr, ptr %3, align 8, !tbaa !123
  %6 = getelementptr inbounds nuw %struct.cf_hc_baller, ptr %5, i32 0, i32 1
  %7 = load ptr, ptr %6, align 8, !tbaa !125
  %8 = icmp ne ptr %7, null
  br i1 %8, label %9, label %27

9:                                                ; preds = %2
  %10 = load ptr, ptr %3, align 8, !tbaa !123
  %11 = getelementptr inbounds nuw %struct.cf_hc_baller, ptr %10, i32 0, i32 2
  %12 = load i32, ptr %11, align 8, !tbaa !117
  %13 = icmp ne i32 %12, 0
  br i1 %13, label %27, label %14

14:                                               ; preds = %9
  %15 = load ptr, ptr %3, align 8, !tbaa !123
  %16 = getelementptr inbounds nuw %struct.cf_hc_baller, ptr %15, i32 0, i32 1
  %17 = load ptr, ptr %16, align 8, !tbaa !125
  %18 = getelementptr inbounds nuw %struct.Curl_cfilter, ptr %17, i32 0, i32 0
  %19 = load ptr, ptr %18, align 8, !tbaa !86
  %20 = getelementptr inbounds nuw %struct.Curl_cftype, ptr %19, i32 0, i32 9
  %21 = load ptr, ptr %20, align 8, !tbaa !134
  %22 = load ptr, ptr %3, align 8, !tbaa !123
  %23 = getelementptr inbounds nuw %struct.cf_hc_baller, ptr %22, i32 0, i32 1
  %24 = load ptr, ptr %23, align 8, !tbaa !125
  %25 = load ptr, ptr %4, align 8, !tbaa !8
  %26 = call zeroext i1 %21(ptr noundef %24, ptr noundef %25)
  br label %27

27:                                               ; preds = %14, %9, %2
  %28 = phi i1 [ false, %9 ], [ false, %2 ], [ %26, %14 ]
  ret i1 %28
}

; Function Attrs: nounwind uwtable
define internal zeroext i1 @cf_hc_data_pending(ptr noundef %0, ptr noundef %1) #0 {
  %3 = alloca i1, align 1
  %4 = alloca ptr, align 8
  %5 = alloca ptr, align 8
  %6 = alloca ptr, align 8
  %7 = alloca i64, align 8
  %8 = alloca i32, align 4
  store ptr %0, ptr %4, align 8, !tbaa !3
  store ptr %1, ptr %5, align 8, !tbaa !8
  call void @llvm.lifetime.start.p0(i64 8, ptr %6) #5
  %9 = load ptr, ptr %4, align 8, !tbaa !3
  %10 = getelementptr inbounds nuw %struct.Curl_cfilter, ptr %9, i32 0, i32 2
  %11 = load ptr, ptr %10, align 8, !tbaa !10
  store ptr %11, ptr %6, align 8, !tbaa !15
  call void @llvm.lifetime.start.p0(i64 8, ptr %7) #5
  %12 = load ptr, ptr %4, align 8, !tbaa !3
  %13 = getelementptr inbounds nuw %struct.Curl_cfilter, ptr %12, i32 0, i32 5
  %14 = load i8, ptr %13, align 4
  %15 = and i8 %14, 1
  %16 = zext i8 %15 to i32
  %17 = icmp ne i32 %16, 0
  br i1 %17, label %18, label %31

18:                                               ; preds = %2
  %19 = load ptr, ptr %4, align 8, !tbaa !3
  %20 = getelementptr inbounds nuw %struct.Curl_cfilter, ptr %19, i32 0, i32 1
  %21 = load ptr, ptr %20, align 8, !tbaa !121
  %22 = getelementptr inbounds nuw %struct.Curl_cfilter, ptr %21, i32 0, i32 0
  %23 = load ptr, ptr %22, align 8, !tbaa !86
  %24 = getelementptr inbounds nuw %struct.Curl_cftype, ptr %23, i32 0, i32 9
  %25 = load ptr, ptr %24, align 8, !tbaa !134
  %26 = load ptr, ptr %4, align 8, !tbaa !3
  %27 = getelementptr inbounds nuw %struct.Curl_cfilter, ptr %26, i32 0, i32 1
  %28 = load ptr, ptr %27, align 8, !tbaa !121
  %29 = load ptr, ptr %5, align 8, !tbaa !8
  %30 = call zeroext i1 %25(ptr noundef %28, ptr noundef %29)
  store i1 %30, ptr %3, align 1
  store i32 1, ptr %8, align 4
  br label %93

31:                                               ; preds = %2
  br label %32

32:                                               ; preds = %31
  %33 = load ptr, ptr %5, align 8, !tbaa !8
  %34 = icmp ne ptr %33, null
  br i1 %34, label %35, label %71

35:                                               ; preds = %32
  %36 = load ptr, ptr %5, align 8, !tbaa !8
  %37 = getelementptr inbounds nuw %struct.Curl_easy, ptr %36, i32 0, i32 16
  %38 = getelementptr inbounds nuw %struct.UserDefined, ptr %37, i32 0, i32 119
  %39 = load i64, ptr %38, align 2
  %40 = lshr i64 %39, 31
  %41 = and i64 %40, 1
  %42 = trunc i64 %41 to i32
  %43 = icmp ne i32 %42, 0
  br i1 %43, label %44, label %71

44:                                               ; preds = %35
  %45 = load ptr, ptr %5, align 8, !tbaa !8
  %46 = getelementptr inbounds nuw %struct.Curl_easy, ptr %45, i32 0, i32 21
  %47 = getelementptr inbounds nuw %struct.UrlState, ptr %46, i32 0, i32 50
  %48 = load ptr, ptr %47, align 8, !tbaa !17
  %49 = icmp ne ptr %48, null
  br i1 %49, label %50, label %58

50:                                               ; preds = %44
  %51 = load ptr, ptr %5, align 8, !tbaa !8
  %52 = getelementptr inbounds nuw %struct.Curl_easy, ptr %51, i32 0, i32 21
  %53 = getelementptr inbounds nuw %struct.UrlState, ptr %52, i32 0, i32 50
  %54 = load ptr, ptr %53, align 8, !tbaa !17
  %55 = getelementptr inbounds nuw %struct.curl_trc_feat, ptr %54, i32 0, i32 1
  %56 = load i32, ptr %55, align 8, !tbaa !84
  %57 = icmp sge i32 %56, 1
  br i1 %57, label %58, label %71

58:                                               ; preds = %50, %44
  %59 = load ptr, ptr %4, align 8, !tbaa !3
  %60 = icmp ne ptr %59, null
  br i1 %60, label %61, label %71

61:                                               ; preds = %58
  %62 = load ptr, ptr %4, align 8, !tbaa !3
  %63 = getelementptr inbounds nuw %struct.Curl_cfilter, ptr %62, i32 0, i32 0
  %64 = load ptr, ptr %63, align 8, !tbaa !86
  %65 = getelementptr inbounds nuw %struct.Curl_cftype, ptr %64, i32 0, i32 2
  %66 = load i32, ptr %65, align 4, !tbaa !87
  %67 = icmp sge i32 %66, 1
  br i1 %67, label %68, label %71

68:                                               ; preds = %61
  %69 = load ptr, ptr %5, align 8, !tbaa !8
  %70 = load ptr, ptr %4, align 8, !tbaa !3
  call void (ptr, ptr, ptr, ...) @Curl_trc_cf_infof(ptr noundef %69, ptr noundef %70, ptr noundef @.str.15)
  br label %71

71:                                               ; preds = %68, %61, %58, %50, %35, %32
  br label %72

72:                                               ; preds = %71
  br label %73

73:                                               ; preds = %72
  store i64 0, ptr %7, align 8, !tbaa !96
  br label %74

74:                                               ; preds = %89, %73
  %75 = load i64, ptr %7, align 8, !tbaa !96
  %76 = load ptr, ptr %6, align 8, !tbaa !15
  %77 = getelementptr inbounds nuw %struct.cf_hc_ctx, ptr %76, i32 0, i32 5
  %78 = load i64, ptr %77, align 8, !tbaa !99
  %79 = icmp ult i64 %75, %78
  br i1 %79, label %80, label %92

80:                                               ; preds = %74
  %81 = load ptr, ptr %6, align 8, !tbaa !15
  %82 = getelementptr inbounds nuw %struct.cf_hc_ctx, ptr %81, i32 0, i32 4
  %83 = load i64, ptr %7, align 8, !tbaa !96
  %84 = getelementptr inbounds nuw [2 x %struct.cf_hc_baller], ptr %82, i64 0, i64 %83
  %85 = load ptr, ptr %5, align 8, !tbaa !8
  %86 = call zeroext i1 @cf_hc_baller_data_pending(ptr noundef %84, ptr noundef %85)
  br i1 %86, label %87, label %88

87:                                               ; preds = %80
  store i1 true, ptr %3, align 1
  store i32 1, ptr %8, align 4
  br label %93

88:                                               ; preds = %80
  br label %89

89:                                               ; preds = %88
  %90 = load i64, ptr %7, align 8, !tbaa !96
  %91 = add i64 %90, 1
  store i64 %91, ptr %7, align 8, !tbaa !96
  br label %74, !llvm.loop !135

92:                                               ; preds = %74
  store i1 false, ptr %3, align 1
  store i32 1, ptr %8, align 4
  br label %93

93:                                               ; preds = %92, %87, %18
  call void @llvm.lifetime.end.p0(i64 8, ptr %7) #5
  call void @llvm.lifetime.end.p0(i64 8, ptr %6) #5
  %94 = load i1, ptr %3, align 1
  ret i1 %94
}