; Function Attrs: nounwind uwtable
define internal zeroext i1 @cf_hc_data_pending(ptr noundef %0, ptr noundef %1) #0 {
  %3 = getelementptr inbounds nuw i8, ptr %0, i64 16
  %4 = load ptr, ptr %3, align 8, !tbaa !3
  %5 = getelementptr inbounds nuw i8, ptr %0, i64 36
  %6 = load i8, ptr %5, align 4
  %7 = and i8 %6, 1
  %.not = icmp eq i8 %7, 0
  br i1 %.not, label %15, label %8

8:                                                ; preds = %2
  %9 = getelementptr inbounds nuw i8, ptr %0, i64 8
  %10 = load ptr, ptr %9, align 8, !tbaa !112
  %11 = load ptr, ptr %10, align 8, !tbaa !81
  %12 = getelementptr inbounds nuw i8, ptr %11, i64 64
  %13 = load ptr, ptr %12, align 8, !tbaa !128
  %14 = tail call zeroext i1 %13(ptr noundef nonnull %10, ptr noundef %1) #4
  br label %.loopexit

15:                                               ; preds = %2
  %.not23 = icmp eq ptr %1, null
  br i1 %.not23, label %33, label %16

16:                                               ; preds = %15
  %17 = getelementptr inbounds nuw i8, ptr %1, i64 2658
  %18 = load i64, ptr %17, align 2
  %19 = and i64 %18, 2147483648
  %.not24 = icmp eq i64 %19, 0
  br i1 %.not24, label %33, label %20

20:                                               ; preds = %16
  %21 = getelementptr inbounds nuw i8, ptr %1, i64 4864
  %22 = load ptr, ptr %21, align 8, !tbaa !12
  %.not25 = icmp eq ptr %22, null
  br i1 %.not25, label %27, label %23

23:                                               ; preds = %20
  %24 = getelementptr inbounds nuw i8, ptr %22, i64 8
  %25 = load i32, ptr %24, align 8, !tbaa !79
  %26 = icmp sgt i32 %25, 0
  br i1 %26, label %27, label %33

27:                                               ; preds = %20, %23
  %28 = load ptr, ptr %0, align 8, !tbaa !81
  %29 = getelementptr inbounds nuw i8, ptr %28, i64 12
  %30 = load i32, ptr %29, align 4, !tbaa !82
  %31 = icmp sgt i32 %30, 0
  br i1 %31, label %32, label %33

32:                                               ; preds = %27
  tail call void (ptr, ptr, ptr, ...) @Curl_trc_cf_infof(ptr noundef nonnull %1, ptr noundef nonnull %0, ptr noundef nonnull @.str.15) #4
  br label %33

33:                                               ; preds = %32, %27, %23, %16, %15
  %34 = getelementptr inbounds nuw i8, ptr %4, i64 152
  %35 = load i64, ptr %34, align 8, !tbaa !84
  %.not28 = icmp eq i64 %35, 0
  br i1 %.not28, label %.loopexit, label %.lr.ph

.lr.ph:                                           ; preds = %33
  %36 = getelementptr inbounds nuw i8, ptr %4, i64 40
  br label %37

37:                                               ; preds = %.lr.ph, %cf_hc_baller_data_pending.exit.thread
  %38 = phi i64 [ %35, %.lr.ph ], [ %49, %cf_hc_baller_data_pending.exit.thread ]
  %.026 = phi i64 [ 0, %.lr.ph ], [ %50, %cf_hc_baller_data_pending.exit.thread ]
  %39 = getelementptr inbounds nuw [2 x %struct.cf_hc_baller], ptr %36, i64 0, i64 %.026
  %40 = getelementptr inbounds nuw i8, ptr %39, i64 8
  %41 = load ptr, ptr %40, align 8, !tbaa !86
  %.not.i = icmp eq ptr %41, null
  br i1 %.not.i, label %cf_hc_baller_data_pending.exit.thread, label %42

42:                                               ; preds = %37
  %43 = getelementptr inbounds nuw i8, ptr %39, i64 16
  %44 = load i32, ptr %43, align 8, !tbaa !88
  %.not5.i = icmp eq i32 %44, 0
  br i1 %.not5.i, label %cf_hc_baller_data_pending.exit, label %cf_hc_baller_data_pending.exit.thread

cf_hc_baller_data_pending.exit:                   ; preds = %42
  %45 = load ptr, ptr %41, align 8, !tbaa !81
  %46 = getelementptr inbounds nuw i8, ptr %45, i64 64
  %47 = load ptr, ptr %46, align 8, !tbaa !128
  %48 = tail call zeroext i1 %47(ptr noundef nonnull %41, ptr noundef %1) #4
  br i1 %48, label %.loopexit, label %cf_hc_baller_data_pending.exit.cf_hc_baller_data_pending.exit.thread_crit_edge

cf_hc_baller_data_pending.exit.cf_hc_baller_data_pending.exit.thread_crit_edge: ; preds = %cf_hc_baller_data_pending.exit
  %.pre = load i64, ptr %34, align 8, !tbaa !84
  br label %cf_hc_baller_data_pending.exit.thread

cf_hc_baller_data_pending.exit.thread:            ; preds = %cf_hc_baller_data_pending.exit.cf_hc_baller_data_pending.exit.thread_crit_edge, %37, %42
  %49 = phi i64 [ %.pre, %cf_hc_baller_data_pending.exit.cf_hc_baller_data_pending.exit.thread_crit_edge ], [ %38, %37 ], [ %38, %42 ]
  %50 = add nuw i64 %.026, 1
  %51 = icmp ult i64 %50, %49
  br i1 %51, label %37, label %.loopexit, !llvm.loop !129

.loopexit:                                        ; preds = %cf_hc_baller_data_pending.exit, %cf_hc_baller_data_pending.exit.thread, %33, %8
  %.020 = phi i1 [ %14, %8 ], [ false, %33 ], [ true, %cf_hc_baller_data_pending.exit ], [ false, %cf_hc_baller_data_pending.exit.thread ]
  ret i1 %.020
}